target datalayout = "e-m:e-p270:32:32-p271:32:32-p272:64:64-i64:64-i128:128-f80:128-n8:16:32:64-S128"
target triple = "x86_64-pc-linux-gnu"

%struct.GetBitContext = type { ptr, ptr, i32, i32, i32 }

; Function Attrs: inlinehint nounwind uwtable
define internal i32 @init_get_bits(ptr noundef %0, ptr noundef %1, i32 noundef %2) #2 {
  %4 = alloca ptr, align 8
  %5 = alloca ptr, align 8
  %6 = alloca i32, align 4
  %7 = alloca i32, align 4
  %8 = alloca i32, align 4
  store ptr %0, ptr %4, align 8, !tbaa !15
  store ptr %1, ptr %5, align 8, !tbaa !11
  store i32 %2, ptr %6, align 4, !tbaa !13
  call void @llvm.lifetime.start.p0(i64 4, ptr %7) #7
  call void @llvm.lifetime.start.p0(i64 4, ptr %8) #7
  store i32 0, ptr %8, align 4, !tbaa !13
  %9 = load i32, ptr %6, align 4, !tbaa !13
  %10 = icmp sge i32 %9, 2147483135
  br i1 %10, label %17, label %11

11:                                               ; preds = %3
  %12 = load i32, ptr %6, align 4, !tbaa !13
  %13 = icmp slt i32 %12, 0
  br i1 %13, label %17, label %14

14:                                               ; preds = %11
  %15 = load ptr, ptr %5, align 8, !tbaa !11
  %16 = icmp ne ptr %15, null
  br i1 %16, label %18, label %17

17:                                               ; preds = %14, %11, %3
  store i32 0, ptr %6, align 4, !tbaa !13
  store ptr null, ptr %5, align 8, !tbaa !11
  store i32 -1094995529, ptr %8, align 4, !tbaa !13
  br label %18

18:                                               ; preds = %17, %14
  %19 = load i32, ptr %6, align 4, !tbaa !13
  %20 = add nsw i32 %19, 7
  %21 = ashr i32 %20, 3
  store i32 %21, ptr %7, align 4, !tbaa !13
  %22 = load ptr, ptr %5, align 8, !tbaa !11
  %23 = load ptr, ptr %4, align 8, !tbaa !15
  %24 = getelementptr inbounds nuw %struct.GetBitContext, ptr %23, i32 0, i32 0
  store ptr %22, ptr %24, align 8, !tbaa !17
  %25 = load i32, ptr %6, align 4, !tbaa !13
  %26 = load ptr, ptr %4, align 8, !tbaa !15
  %27 = getelementptr inbounds nuw %struct.GetBitContext, ptr %26, i32 0, i32 3
  store i32 %25, ptr %27, align 4, !tbaa !19
  %28 = load i32, ptr %6, align 4, !tbaa !13
  %29 = add nsw i32 %28, 8
  %30 = load ptr, ptr %4, align 8, !tbaa !15
  %31 = getelementptr inbounds nuw %struct.GetBitContext, ptr %30, i32 0, i32 4
  store i32 %29, ptr %31, align 8, !tbaa !20
  %32 = load ptr, ptr %5, align 8, !tbaa !11
  %33 = load i32, ptr %7, align 4, !tbaa !13
  %34 = sext i32 %33 to i64
  %35 = getelementptr inbounds i8, ptr %32, i64 %34
  %36 = load ptr, ptr %4, align 8, !tbaa !15
  %37 = getelementptr inbounds nuw %struct.GetBitContext, ptr %36, i32 0, i32 1
  store ptr %35, ptr %37, align 8, !tbaa !21
  %38 = load ptr, ptr %4, align 8, !tbaa !15
  %39 = getelementptr inbounds nuw %struct.GetBitContext, ptr %38, i32 0, i32 2
  store i32 0, ptr %39, align 8, !tbaa !22
  %40 = load i32, ptr %8, align 4, !tbaa !13
  call void @llvm.lifetime.end.p0(i64 4, ptr %8) #7
  call void @llvm.lifetime.end.p0(i64 4, ptr %7) #7
  ret i32 %40
}

; Function Attrs: nounwind uwtable
define i32 @ff_msgsm_decode_block(ptr noundef %0, ptr noundef %1, ptr noundef %2, i32 noundef %3) #0 {
  %5 = alloca i32, align 4
  %6 = alloca ptr, align 8
  %7 = alloca ptr, align 8
  %8 = alloca ptr, align 8
  %9 = alloca i32, align 4
  %10 = alloca i32, align 4
  %11 = alloca %struct.GetBitContext, align 8
  %12 = alloca i32, align 4
  store ptr %0, ptr %6, align 8, !tbaa !4
  store ptr %1, ptr %7, align 8, !tbaa !9
  store ptr %2, ptr %8, align 8, !tbaa !11
  store i32 %3, ptr %9, align 4, !tbaa !13
  call void @llvm.lifetime.start.p0(i64 4, ptr %10) #7
  call void @llvm.lifetime.start.p0(i64 32, ptr %11) #7
  %13 = load ptr, ptr %8, align 8, !tbaa !11
  %14 = call i32 @init_get_bits(ptr noundef %11, ptr noundef %13, i32 noundef 520)
  %15 = load ptr, ptr %6, align 8, !tbaa !4
  %16 = load ptr, ptr %7, align 8, !tbaa !9
  %17 = load i32, ptr %9, align 4, !tbaa !13
  %18 = call i32 @gsm_decode_block(ptr noundef %15, ptr noundef %16, ptr noundef %11, i32 noundef %17)
  store i32 %18, ptr %10, align 4, !tbaa !13
  %19 = load i32, ptr %10, align 4, !tbaa !13
  %20 = icmp slt i32 %19, 0
  br i1 %20, label %21, label %23

21:                                               ; preds = %4
  %22 = load i32, ptr %10, align 4, !tbaa !13
  store i32 %22, ptr %5, align 4
  store i32 1, ptr %12, align 4
  br label %29

23:                                               ; preds = %4
  %24 = load ptr, ptr %6, align 8, !tbaa !4
  %25 = load ptr, ptr %7, align 8, !tbaa !9
  %26 = getelementptr inbounds i16, ptr %25, i64 160
  %27 = load i32, ptr %9, align 4, !tbaa !13
  %28 = call i32 @gsm_decode_block(ptr noundef %24, ptr noundef %26, ptr noundef %11, i32 noundef %27)
  store i32 %28, ptr %5, align 4
  store i32 1, ptr %12, align 4
  br label %29

29:                                               ; preds = %23, %21
  call void @llvm.lifetime.end.p0(i64 32, ptr %11) #7
  call void @llvm.lifetime.end.p0(i64 4, ptr %10) #7
  %30 = load i32, ptr %5, align 4
  ret i32 %30
}