; Function Attrs: nofree norecurse nosync nounwind memory(readwrite, inaccessiblemem: none) uwtable
define noundef i32 @ff_msgsm_decode_block(ptr noundef readonly captures(none) %0, ptr noundef captures(none) %1, ptr noundef %2, i32 noundef %3) local_unnamed_addr #0 {
  %5 = alloca %struct.GetBitContext, align 8
  call void @llvm.lifetime.start.p0(i64 32, ptr nonnull %5) #6
  %.not.i = icmp eq ptr %2, null
  %.018.i = select i1 %.not.i, i32 0, i32 520
  %6 = lshr exact i32 %.018.i, 3
  store ptr %2, ptr %5, align 8, !tbaa !4
  %7 = getelementptr inbounds nuw i8, ptr %5, i64 20
  store i32 %.018.i, ptr %7, align 4, !tbaa !11
  %8 = add nuw nsw i32 %.018.i, 8
  %9 = getelementptr inbounds nuw i8, ptr %5, i64 24
  store i32 %8, ptr %9, align 8, !tbaa !12
  %10 = zext nneg i32 %6 to i64
  %11 = getelementptr inbounds nuw i8, ptr %2, i64 %10
  %12 = getelementptr inbounds nuw i8, ptr %5, i64 8
  store ptr %11, ptr %12, align 8, !tbaa !13
  %13 = getelementptr inbounds nuw i8, ptr %5, i64 16
  store i32 0, ptr %13, align 8, !tbaa !14
  %14 = getelementptr i8, ptr %0, i64 32
  %.val = load ptr, ptr %14, align 8, !tbaa !15
  call fastcc void @gsm_decode_block(ptr %.val, ptr noundef %1, ptr noundef %5, i32 noundef %3)
  %15 = getelementptr inbounds nuw i8, ptr %1, i64 320
  %.val10 = load ptr, ptr %14, align 8, !tbaa !15
  call fastcc void @gsm_decode_block(ptr %.val10, ptr noundef nonnull %15, ptr noundef %5, i32 noundef %3)
  call void @llvm.lifetime.end.p0(i64 32, ptr nonnull %5) #6
  ret i32 0
}